target datalayout = "e-m:e-p270:32:32-p271:32:32-p272:64:64-i64:64-i128:128-f80:128-n8:16:32:64-S128"
target triple = "x86_64-pc-linux-gnu"

%struct.lua_TValue = type { %union.Value, [1 x i32], i32 }
%union.Value = type { ptr }
%struct.lua_State = type { i8, i8, i8, i8, i8, i8, i8, ptr, ptr, ptr, ptr, ptr, ptr, ptr, ptr, i32, i32, i16, i16, i32, ptr, ptr, ptr, ptr, ptr }
%struct.CallInfo = type { ptr, ptr, ptr, ptr, i32, i32 }
%struct.Closure = type { i8, i8, i8, i8, i8, i8, i8, ptr, ptr, %union.anon.1 }
%union.anon.1 = type { %struct.anon }
%struct.anon = type { ptr, ptr, ptr, [1 x %struct.lua_TValue] }
%struct.anon.2 = type { ptr, [1 x %struct.lua_TValue] }
%struct.Proto = type { i8, i8, i8, i8, i8, i8, i8, i8, ptr, ptr, ptr, ptr, ptr, i64, ptr, ptr, ptr, ptr, ptr, ptr, ptr, ptr, ptr, ptr, i32, i32, i32, i32, i32, i32, i32, i32, i32, i32 }

; Function Attrs: mustprogress uwtable
define dso_local noundef ptr @_ZN4Luau7CodeGen12callFallbackEP9lua_StateP10lua_TValueS4_i(ptr noundef %0, ptr noundef %1, ptr noundef %2, i32 noundef %3) #2 {
  %5 = alloca ptr, align 8
  %6 = alloca ptr, align 8
  %7 = alloca ptr, align 8
  %8 = alloca ptr, align 8
  %9 = alloca i32, align 4
  %10 = alloca ptr, align 8
  %11 = alloca ptr, align 8
  %12 = alloca ptr, align 8
  %13 = alloca ptr, align 8
  %14 = alloca ptr, align 8
  %15 = alloca ptr, align 8
  %16 = alloca i32, align 4
  %17 = alloca ptr, align 8
  %18 = alloca ptr, align 8
  %19 = alloca ptr, align 8
  %20 = alloca ptr, align 8
  %21 = alloca ptr, align 8
  %22 = alloca i32, align 4
  %23 = alloca ptr, align 8
  %24 = alloca ptr, align 8
  store ptr %0, ptr %6, align 8
  store ptr %1, ptr %7, align 8
  store ptr %2, ptr %8, align 8
  store i32 %3, ptr %9, align 4
  %25 = load ptr, ptr %7, align 8
  %26 = getelementptr inbounds %struct.lua_TValue, ptr %25, i32 0, i32 2
  %27 = load i32, ptr %26, align 4
  %28 = icmp eq i32 %27, 7
  %29 = xor i1 %28, true
  br i1 %29, label %30, label %35

30:                                               ; preds = %4
  %31 = load ptr, ptr %6, align 8
  %32 = load ptr, ptr %7, align 8
  call void @_Z14luaV_tryfuncTMP9lua_StateP10lua_TValue(ptr noundef %31, ptr noundef %32)
  %33 = load ptr, ptr %8, align 8
  %34 = getelementptr inbounds %struct.lua_TValue, ptr %33, i32 1
  store ptr %34, ptr %8, align 8
  br label %35

35:                                               ; preds = %30, %4
  %36 = load ptr, ptr %7, align 8
  %37 = getelementptr inbounds %struct.lua_TValue, ptr %36, i32 0, i32 0
  %38 = load ptr, ptr %37, align 8
  store ptr %38, ptr %10, align 8
  %39 = load ptr, ptr %6, align 8
  %40 = getelementptr inbounds %struct.lua_State, ptr %39, i32 0, i32 10
  %41 = load ptr, ptr %40, align 8
  %42 = load ptr, ptr %6, align 8
  %43 = getelementptr inbounds %struct.lua_State, ptr %42, i32 0, i32 13
  %44 = load ptr, ptr %43, align 8
  %45 = icmp eq ptr %41, %44
  br i1 %45, label %46, label %49

46:                                               ; preds = %35
  %47 = load ptr, ptr %6, align 8
  %48 = call noundef ptr @_Z11luaD_growCIP9lua_State(ptr noundef %47)
  br label %54

49:                                               ; preds = %35
  %50 = load ptr, ptr %6, align 8
  %51 = getelementptr inbounds %struct.lua_State, ptr %50, i32 0, i32 10
  %52 = load ptr, ptr %51, align 8
  %53 = getelementptr inbounds %struct.CallInfo, ptr %52, i32 1
  store ptr %53, ptr %51, align 8
  br label %54

54:                                               ; preds = %49, %46
  %55 = phi ptr [ %48, %46 ], [ %53, %49 ]
  store ptr %55, ptr %11, align 8
  %56 = load ptr, ptr %7, align 8
  %57 = load ptr, ptr %11, align 8
  %58 = getelementptr inbounds %struct.CallInfo, ptr %57, i32 0, i32 1
  store ptr %56, ptr %58, align 8
  %59 = load ptr, ptr %7, align 8
  %60 = getelementptr inbounds %struct.lua_TValue, ptr %59, i64 1
  %61 = load ptr, ptr %11, align 8
  %62 = getelementptr inbounds %struct.CallInfo, ptr %61, i32 0, i32 0
  store ptr %60, ptr %62, align 8
  %63 = load ptr, ptr %8, align 8
  %64 = load ptr, ptr %10, align 8
  %65 = getelementptr inbounds %struct.Closure, ptr %64, i32 0, i32 5
  %66 = load i8, ptr %65, align 1
  %67 = zext i8 %66 to i32
  %68 = sext i32 %67 to i64
  %69 = getelementptr inbounds %struct.lua_TValue, ptr %63, i64 %68
  %70 = load ptr, ptr %11, align 8
  %71 = getelementptr inbounds %struct.CallInfo, ptr %70, i32 0, i32 2
  store ptr %69, ptr %71, align 8
  %72 = load ptr, ptr %11, align 8
  %73 = getelementptr inbounds %struct.CallInfo, ptr %72, i32 0, i32 3
  store ptr null, ptr %73, align 8
  %74 = load ptr, ptr %11, align 8
  %75 = getelementptr inbounds %struct.CallInfo, ptr %74, i32 0, i32 5
  store i32 0, ptr %75, align 4
  %76 = load i32, ptr %9, align 4
  %77 = load ptr, ptr %11, align 8
  %78 = getelementptr inbounds %struct.CallInfo, ptr %77, i32 0, i32 4
  store i32 %76, ptr %78, align 8
  %79 = load ptr, ptr %11, align 8
  %80 = getelementptr inbounds %struct.CallInfo, ptr %79, i32 0, i32 0
  %81 = load ptr, ptr %80, align 8
  %82 = load ptr, ptr %6, align 8
  %83 = getelementptr inbounds %struct.lua_State, ptr %82, i32 0, i32 8
  store ptr %81, ptr %83, align 8
  %84 = load ptr, ptr %8, align 8
  %85 = load ptr, ptr %6, align 8
  %86 = getelementptr inbounds %struct.lua_State, ptr %85, i32 0, i32 7
  store ptr %84, ptr %86, align 8
  %87 = load ptr, ptr %6, align 8
  %88 = getelementptr inbounds %struct.lua_State, ptr %87, i32 0, i32 11
  %89 = load ptr, ptr %88, align 8
  %90 = load ptr, ptr %6, align 8
  %91 = getelementptr inbounds %struct.lua_State, ptr %90, i32 0, i32 7
  %92 = load ptr, ptr %91, align 8
  %93 = ptrtoint ptr %89 to i64
  %94 = ptrtoint ptr %92 to i64
  %95 = sub i64 %93, %94
  %96 = load ptr, ptr %10, align 8
  %97 = getelementptr inbounds %struct.Closure, ptr %96, i32 0, i32 5
  %98 = load i8, ptr %97, align 1
  %99 = zext i8 %98 to i32
  %100 = mul nsw i32 %99, 16
  %101 = sext i32 %100 to i64
  %102 = icmp sle i64 %95, %101
  br i1 %102, label %103, label %109

103:                                              ; preds = %54
  %104 = load ptr, ptr %6, align 8
  %105 = load ptr, ptr %10, align 8
  %106 = getelementptr inbounds %struct.Closure, ptr %105, i32 0, i32 5
  %107 = load i8, ptr %106, align 1
  %108 = zext i8 %107 to i32
  call void @_Z14luaD_growstackP9lua_Statei(ptr noundef %104, i32 noundef %108)
  br label %110

109:                                              ; preds = %54
  br label %110

110:                                              ; preds = %109, %103
  %111 = load ptr, ptr %10, align 8
  %112 = getelementptr inbounds %struct.Closure, ptr %111, i32 0, i32 3
  %113 = load i8, ptr %112, align 1
  %114 = icmp ne i8 %113, 0
  br i1 %114, label %169, label %115

115:                                              ; preds = %110
  %116 = load ptr, ptr %10, align 8
  %117 = getelementptr inbounds %struct.Closure, ptr %116, i32 0, i32 9
  %118 = getelementptr inbounds %struct.anon.2, ptr %117, i32 0, i32 0
  %119 = load ptr, ptr %118, align 8
  store ptr %119, ptr %12, align 8
  %120 = load ptr, ptr %6, align 8
  %121 = getelementptr inbounds %struct.lua_State, ptr %120, i32 0, i32 7
  %122 = load ptr, ptr %121, align 8
  store ptr %122, ptr %13, align 8
  %123 = load ptr, ptr %6, align 8
  %124 = getelementptr inbounds %struct.lua_State, ptr %123, i32 0, i32 8
  %125 = load ptr, ptr %124, align 8
  %126 = load ptr, ptr %12, align 8
  %127 = getelementptr inbounds %struct.Proto, ptr %126, i32 0, i32 4
  %128 = load i8, ptr %127, align 4
  %129 = zext i8 %128 to i32
  %130 = sext i32 %129 to i64
  %131 = getelementptr inbounds %struct.lua_TValue, ptr %125, i64 %130
  store ptr %131, ptr %14, align 8
  br label %132

132:                                              ; preds = %136, %115
  %133 = load ptr, ptr %13, align 8
  %134 = load ptr, ptr %14, align 8
  %135 = icmp ult ptr %133, %134
  br i1 %135, label %136, label %140

136:                                              ; preds = %132
  %137 = load ptr, ptr %13, align 8
  %138 = getelementptr inbounds %struct.lua_TValue, ptr %137, i32 1
  store ptr %138, ptr %13, align 8
  %139 = getelementptr inbounds %struct.lua_TValue, ptr %137, i32 0, i32 2
  store i32 0, ptr %139, align 4
  br label %132, !llvm.loop !11

140:                                              ; preds = %132
  %141 = load ptr, ptr %12, align 8
  %142 = getelementptr inbounds %struct.Proto, ptr %141, i32 0, i32 5
  %143 = load i8, ptr %142, align 1
  %144 = icmp ne i8 %143, 0
  br i1 %144, label %145, label %147

145:                                              ; preds = %140
  %146 = load ptr, ptr %13, align 8
  br label %151

147:                                              ; preds = %140
  %148 = load ptr, ptr %11, align 8
  %149 = getelementptr inbounds %struct.CallInfo, ptr %148, i32 0, i32 2
  %150 = load ptr, ptr %149, align 8
  br label %151

151:                                              ; preds = %147, %145
  %152 = phi ptr [ %146, %145 ], [ %150, %147 ]
  %153 = load ptr, ptr %6, align 8
  %154 = getelementptr inbounds %struct.lua_State, ptr %153, i32 0, i32 7
  store ptr %152, ptr %154, align 8
  %155 = load ptr, ptr %12, align 8
  %156 = getelementptr inbounds %struct.Proto, ptr %155, i32 0, i32 9
  %157 = load ptr, ptr %156, align 8
  %158 = load ptr, ptr %11, align 8
  %159 = getelementptr inbounds %struct.CallInfo, ptr %158, i32 0, i32 3
  store ptr %157, ptr %159, align 8
  %160 = load ptr, ptr %12, align 8
  %161 = getelementptr inbounds %struct.Proto, ptr %160, i32 0, i32 12
  %162 = load ptr, ptr %161, align 8
  %163 = icmp ne ptr %162, null
  br i1 %163, label %164, label %167

164:                                              ; preds = %151
  %165 = load ptr, ptr %11, align 8
  %166 = getelementptr inbounds %struct.CallInfo, ptr %165, i32 0, i32 5
  store i32 4, ptr %166, align 4
  br label %167

167:                                              ; preds = %164, %151
  %168 = load ptr, ptr %10, align 8
  store ptr %168, ptr %5, align 8
  br label %249

169:                                              ; preds = %110
  %170 = load ptr, ptr %10, align 8
  %171 = getelementptr inbounds %struct.Closure, ptr %170, i32 0, i32 9
  %172 = getelementptr inbounds %struct.anon, ptr %171, i32 0, i32 0
  %173 = load ptr, ptr %172, align 8
  store ptr %173, ptr %15, align 8
  %174 = load ptr, ptr %15, align 8
  %175 = load ptr, ptr %6, align 8
  %176 = call noundef i32 %174(ptr noundef %175)
  store i32 %176, ptr %16, align 4
  %177 = load i32, ptr %16, align 4
  %178 = icmp slt i32 %177, 0
  br i1 %178, label %179, label %180

179:                                              ; preds = %169
  store ptr inttoptr (i64 1 to ptr), ptr %5, align 8
  br label %249

180:                                              ; preds = %169
  %181 = load ptr, ptr %6, align 8
  %182 = getelementptr inbounds %struct.lua_State, ptr %181, i32 0, i32 10
  %183 = load ptr, ptr %182, align 8
  store ptr %183, ptr %17, align 8
  %184 = load ptr, ptr %17, align 8
  %185 = getelementptr inbounds %struct.CallInfo, ptr %184, i64 -1
  store ptr %185, ptr %18, align 8
  %186 = load ptr, ptr %17, align 8
  %187 = getelementptr inbounds %struct.CallInfo, ptr %186, i32 0, i32 1
  %188 = load ptr, ptr %187, align 8
  store ptr %188, ptr %19, align 8
  %189 = load ptr, ptr %6, align 8
  %190 = getelementptr inbounds %struct.lua_State, ptr %189, i32 0, i32 7
  %191 = load ptr, ptr %190, align 8
  %192 = load i32, ptr %16, align 4
  %193 = sext i32 %192 to i64
  %194 = sub i64 0, %193
  %195 = getelementptr inbounds %struct.lua_TValue, ptr %191, i64 %194
  store ptr %195, ptr %20, align 8
  %196 = load ptr, ptr %6, align 8
  %197 = getelementptr inbounds %struct.lua_State, ptr %196, i32 0, i32 7
  %198 = load ptr, ptr %197, align 8
  store ptr %198, ptr %21, align 8
  %199 = load i32, ptr %9, align 4
  store i32 %199, ptr %22, align 4
  br label %200

200:                                              ; preds = %216, %180
  %201 = load i32, ptr %22, align 4
  %202 = icmp ne i32 %201, 0
  br i1 %202, label %203, label %207

203:                                              ; preds = %200
  %204 = load ptr, ptr %20, align 8
  %205 = load ptr, ptr %21, align 8
  %206 = icmp ult ptr %204, %205
  br label %207

207:                                              ; preds = %203, %200
  %208 = phi i1 [ false, %200 ], [ %206, %203 ]
  br i1 %208, label %209, label %219

209:                                              ; preds = %207
  %210 = load ptr, ptr %20, align 8
  %211 = getelementptr inbounds %struct.lua_TValue, ptr %210, i32 1
  store ptr %211, ptr %20, align 8
  store ptr %210, ptr %23, align 8
  %212 = load ptr, ptr %19, align 8
  %213 = getelementptr inbounds %struct.lua_TValue, ptr %212, i32 1
  store ptr %213, ptr %19, align 8
  store ptr %212, ptr %24, align 8
  %214 = load ptr, ptr %23, align 8
  %215 = load ptr, ptr %24, align 8
  call void @llvm.memcpy.p0.p0.i64(ptr align 8 %215, ptr align 8 %214, i64 16, i1 false)
  br label %216

216:                                              ; preds = %209
  %217 = load i32, ptr %22, align 4
  %218 = add nsw i32 %217, -1
  store i32 %218, ptr %22, align 4
  br label %200, !llvm.loop !12

219:                                              ; preds = %207
  br label %220

220:                                              ; preds = %224, %219
  %221 = load i32, ptr %22, align 4
  %222 = add nsw i32 %221, -1
  store i32 %222, ptr %22, align 4
  %223 = icmp sgt i32 %221, 0
  br i1 %223, label %224, label %228

224:                                              ; preds = %220
  %225 = load ptr, ptr %19, align 8
  %226 = getelementptr inbounds %struct.lua_TValue, ptr %225, i32 1
  store ptr %226, ptr %19, align 8
  %227 = getelementptr inbounds %struct.lua_TValue, ptr %225, i32 0, i32 2
  store i32 0, ptr %227, align 4
  br label %220, !llvm.loop !13

228:                                              ; preds = %220
  %229 = load ptr, ptr %18, align 8
  %230 = load ptr, ptr %6, align 8
  %231 = getelementptr inbounds %struct.lua_State, ptr %230, i32 0, i32 10
  store ptr %229, ptr %231, align 8
  %232 = load ptr, ptr %18, align 8
  %233 = getelementptr inbounds %struct.CallInfo, ptr %232, i32 0, i32 0
  %234 = load ptr, ptr %233, align 8
  %235 = load ptr, ptr %6, align 8
  %236 = getelementptr inbounds %struct.lua_State, ptr %235, i32 0, i32 8
  store ptr %234, ptr %236, align 8
  %237 = load i32, ptr %9, align 4
  %238 = icmp eq i32 %237, -1
  br i1 %238, label %239, label %241

239:                                              ; preds = %228
  %240 = load ptr, ptr %19, align 8
  br label %245

241:                                              ; preds = %228
  %242 = load ptr, ptr %18, align 8
  %243 = getelementptr inbounds %struct.CallInfo, ptr %242, i32 0, i32 2
  %244 = load ptr, ptr %243, align 8
  br label %245

245:                                              ; preds = %241, %239
  %246 = phi ptr [ %240, %239 ], [ %244, %241 ]
  %247 = load ptr, ptr %6, align 8
  %248 = getelementptr inbounds %struct.lua_State, ptr %247, i32 0, i32 7
  store ptr %246, ptr %248, align 8
  store ptr null, ptr %5, align 8
  br label %249

249:                                              ; preds = %245, %179, %167
  %250 = load ptr, ptr %5, align 8
  ret ptr %250
}