; Function Attrs: mustprogress uwtable
define dso_local noundef ptr @_ZN4Luau7CodeGen12callFallbackEP9lua_StateP10lua_TValueS4_i(ptr noundef %0, ptr noundef %1, ptr noundef %2, i32 noundef %3) local_unnamed_addr #2 {
  %5 = getelementptr inbounds i8, ptr %1, i64 12
  %6 = load i32, ptr %5, align 4
  %.not = icmp eq i32 %6, 7
  br i1 %.not, label %9, label %7

7:                                                ; preds = %4
  tail call void @_Z14luaV_tryfuncTMP9lua_StateP10lua_TValue(ptr noundef %0, ptr noundef nonnull %1)
  %8 = getelementptr inbounds i8, ptr %2, i64 16
  br label %9

9:                                                ; preds = %7, %4
  %.075 = phi ptr [ %8, %7 ], [ %2, %4 ]
  %10 = load ptr, ptr %1, align 8
  %11 = getelementptr inbounds i8, ptr %0, i64 32
  %12 = load ptr, ptr %11, align 8
  %13 = getelementptr inbounds i8, ptr %0, i64 56
  %14 = load ptr, ptr %13, align 8
  %15 = icmp eq ptr %12, %14
  br i1 %15, label %16, label %18

16:                                               ; preds = %9
  %17 = tail call noundef ptr @_Z11luaD_growCIP9lua_State(ptr noundef nonnull %0)
  br label %20

18:                                               ; preds = %9
  %19 = getelementptr inbounds i8, ptr %12, i64 40
  store ptr %19, ptr %11, align 8
  br label %20

20:                                               ; preds = %18, %16
  %21 = phi ptr [ %17, %16 ], [ %19, %18 ]
  %22 = getelementptr inbounds i8, ptr %21, i64 8
  store ptr %1, ptr %22, align 8
  %23 = getelementptr inbounds i8, ptr %1, i64 16
  store ptr %23, ptr %21, align 8
  %24 = getelementptr inbounds i8, ptr %10, i64 5
  %25 = load i8, ptr %24, align 1
  %26 = zext i8 %25 to i64
  %27 = getelementptr inbounds %struct.lua_TValue, ptr %.075, i64 %26
  %28 = getelementptr inbounds i8, ptr %21, i64 16
  store ptr %27, ptr %28, align 8
  %29 = getelementptr inbounds i8, ptr %21, i64 24
  store ptr null, ptr %29, align 8
  %30 = getelementptr inbounds i8, ptr %21, i64 36
  store i32 0, ptr %30, align 4
  %31 = getelementptr inbounds i8, ptr %21, i64 32
  store i32 %3, ptr %31, align 8
  %32 = getelementptr inbounds i8, ptr %0, i64 16
  store ptr %23, ptr %32, align 8
  %33 = getelementptr inbounds i8, ptr %0, i64 8
  store ptr %.075, ptr %33, align 8
  %34 = getelementptr inbounds i8, ptr %0, i64 40
  %35 = load ptr, ptr %34, align 8
  %36 = ptrtoint ptr %35 to i64
  %37 = ptrtoint ptr %.075 to i64
  %38 = sub i64 %36, %37
  %39 = load i8, ptr %24, align 1
  %40 = zext i8 %39 to i32
  %41 = shl nuw nsw i32 %40, 4
  %42 = zext nneg i32 %41 to i64
  %.not83 = icmp sgt i64 %38, %42
  br i1 %.not83, label %44, label %43

43:                                               ; preds = %20
  tail call void @_Z14luaD_growstackP9lua_Statei(ptr noundef nonnull %0, i32 noundef %40)
  br label %44

44:                                               ; preds = %20, %43
  %45 = getelementptr inbounds i8, ptr %10, i64 3
  %46 = load i8, ptr %45, align 1
  %.not84 = icmp eq i8 %46, 0
  %47 = getelementptr inbounds i8, ptr %10, i64 24
  %48 = load ptr, ptr %47, align 8
  br i1 %.not84, label %49, label %71

49:                                               ; preds = %44
  %50 = load ptr, ptr %33, align 8
  %51 = load ptr, ptr %32, align 8
  %52 = getelementptr inbounds i8, ptr %48, i64 4
  %53 = load i8, ptr %52, align 4
  %54 = zext i8 %53 to i64
  %55 = getelementptr inbounds %struct.lua_TValue, ptr %51, i64 %54
  %56 = icmp ult ptr %50, %55
  br i1 %56, label %.lr.ph97, label %._crit_edge98

.lr.ph97:                                         ; preds = %49, %.lr.ph97
  %.07795 = phi ptr [ %57, %.lr.ph97 ], [ %50, %49 ]
  %57 = getelementptr inbounds i8, ptr %.07795, i64 16
  %58 = getelementptr inbounds i8, ptr %.07795, i64 12
  store i32 0, ptr %58, align 4
  %59 = icmp ult ptr %57, %55
  br i1 %59, label %.lr.ph97, label %._crit_edge98, !llvm.loop !11

._crit_edge98:                                    ; preds = %.lr.ph97, %49
  %.077.lcssa = phi ptr [ %50, %49 ], [ %57, %.lr.ph97 ]
  %60 = getelementptr inbounds i8, ptr %48, i64 5
  %61 = load i8, ptr %60, align 1
  %.not85 = icmp eq i8 %61, 0
  br i1 %.not85, label %62, label %64

62:                                               ; preds = %._crit_edge98
  %63 = load ptr, ptr %28, align 8
  br label %64

64:                                               ; preds = %._crit_edge98, %62
  %65 = phi ptr [ %63, %62 ], [ %.077.lcssa, %._crit_edge98 ]
  store ptr %65, ptr %33, align 8
  %66 = getelementptr inbounds i8, ptr %48, i64 16
  %67 = load ptr, ptr %66, align 8
  store ptr %67, ptr %29, align 8
  %68 = getelementptr inbounds i8, ptr %48, i64 40
  %69 = load ptr, ptr %68, align 8
  %.not86 = icmp eq ptr %69, null
  br i1 %.not86, label %104, label %70

70:                                               ; preds = %64
  store i32 4, ptr %30, align 4
  br label %104

71:                                               ; preds = %44
  %72 = tail call noundef i32 %48(ptr noundef nonnull %0)
  %73 = icmp slt i32 %72, 0
  br i1 %73, label %104, label %74

74:                                               ; preds = %71
  %75 = load ptr, ptr %11, align 8
  %76 = getelementptr inbounds i8, ptr %75, i64 -40
  %77 = getelementptr inbounds i8, ptr %75, i64 8
  %78 = load ptr, ptr %77, align 8
  %79 = load ptr, ptr %33, align 8
  %80 = icmp ne i32 %3, 0
  %81 = icmp ne i32 %72, 0
  %82 = and i1 %80, %81
  br i1 %82, label %.lr.ph.preheader, label %.preheader

.lr.ph.preheader:                                 ; preds = %74
  %83 = zext nneg i32 %72 to i64
  %84 = sub nsw i64 0, %83
  %85 = getelementptr inbounds %struct.lua_TValue, ptr %79, i64 %84
  br label %.lr.ph

.preheader:                                       ; preds = %.lr.ph, %74
  %.079.lcssa = phi ptr [ %78, %74 ], [ %88, %.lr.ph ]
  %.076.lcssa = phi i32 [ %3, %74 ], [ %89, %.lr.ph ]
  %86 = icmp sgt i32 %.076.lcssa, 0
  br i1 %86, label %.lr.ph93, label %._crit_edge

.lr.ph:                                           ; preds = %.lr.ph.preheader, %.lr.ph
  %.07689 = phi i32 [ %89, %.lr.ph ], [ %3, %.lr.ph.preheader ]
  %.07888 = phi ptr [ %87, %.lr.ph ], [ %85, %.lr.ph.preheader ]
  %.07987 = phi ptr [ %88, %.lr.ph ], [ %78, %.lr.ph.preheader ]
  %87 = getelementptr inbounds i8, ptr %.07888, i64 16
  %88 = getelementptr inbounds i8, ptr %.07987, i64 16
  tail call void @llvm.memcpy.p0.p0.i64(ptr noundef nonnull align 8 dereferenceable(16) %.07987, ptr noundef nonnull align 8 dereferenceable(16) %.07888, i64 16, i1 false)
  %89 = add nsw i32 %.07689, -1
  %90 = icmp ne i32 %89, 0
  %91 = icmp ult ptr %87, %79
  %92 = select i1 %90, i1 %91, i1 false
  br i1 %92, label %.lr.ph, label %.preheader, !llvm.loop !12

.lr.ph93:                                         ; preds = %.preheader, %.lr.ph93
  %.192 = phi i32 [ %93, %.lr.ph93 ], [ %.076.lcssa, %.preheader ]
  %.18091 = phi ptr [ %94, %.lr.ph93 ], [ %.079.lcssa, %.preheader ]
  %93 = add nsw i32 %.192, -1
  %94 = getelementptr inbounds i8, ptr %.18091, i64 16
  %95 = getelementptr inbounds i8, ptr %.18091, i64 12
  store i32 0, ptr %95, align 4
  %96 = icmp ugt i32 %.192, 1
  br i1 %96, label %.lr.ph93, label %._crit_edge, !llvm.loop !13

._crit_edge:                                      ; preds = %.lr.ph93, %.preheader
  %.180.lcssa = phi ptr [ %.079.lcssa, %.preheader ], [ %94, %.lr.ph93 ]
  store ptr %76, ptr %11, align 8
  %97 = load ptr, ptr %76, align 8
  store ptr %97, ptr %32, align 8
  %98 = icmp eq i32 %3, -1
  br i1 %98, label %102, label %99

99:                                               ; preds = %._crit_edge
  %100 = getelementptr inbounds i8, ptr %75, i64 -24
  %101 = load ptr, ptr %100, align 8
  br label %102

102:                                              ; preds = %._crit_edge, %99
  %103 = phi ptr [ %101, %99 ], [ %.180.lcssa, %._crit_edge ]
  store ptr %103, ptr %33, align 8
  br label %104

104:                                              ; preds = %71, %64, %70, %102
  %.0 = phi ptr [ null, %102 ], [ %10, %70 ], [ %10, %64 ], [ inttoptr (i64 1 to ptr), %71 ]
  ret ptr %.0
}